Certificate:
    Data:
        Version: 1 (0x0)
        Serial Number: 1 (0x1)
    Signature Algorithm: sha256WithRSAEncryption
        Issuer: C=US, ST=NC, L=Cary, O=Real Time Innovations, CN=NC Cert World/emailAddress=secure@rti.com
        Validity
            Not Before: Mar  1 04:19:47 2019 GMT
            Not After : Feb 29 04:19:47 2020 GMT
        Subject: C=US, ST=NC, O=Real Time Innovations, CN=pixyshapes/emailAddress=pixyshapes@rti.com
        Subject Public Key Info:
            Public Key Algorithm: rsaEncryption
                Public-Key: (2048 bit)
                Modulus:
                    00:c9:d5:89:64:08:7b:be:8d:cd:0f:83:22:12:4c:
                    ab:da:99:fc:03:80:85:aa:b5:52:94:2e:c2:8f:01:
                    88:b9:52:bf:89:c6:90:86:86:d1:1f:ff:45:9c:61:
                    fa:f7:b8:c5:7e:23:96:94:8d:de:31:f3:75:74:8d:
                    8e:b9:45:f1:ab:e9:26:23:11:d1:93:d6:1f:ce:cd:
                    0e:f4:1d:39:44:47:67:29:46:f4:aa:78:97:cb:a7:
                    06:31:a4:0d:f4:0c:85:25:63:c4:29:c8:c6:1b:18:
                    6b:8d:25:dc:88:46:09:9d:02:09:90:9d:66:16:01:
                    7f:8b:3d:0e:3f:59:50:05:a3:ac:22:ba:bc:eb:eb:
                    03:32:f3:db:4d:c1:46:08:cd:a6:99:fb:d3:44:7b:
                    e9:41:df:e7:5c:66:71:82:24:67:95:64:81:69:32:
                    49:90:6c:bc:07:c2:75:a0:0f:b7:ad:35:c0:1a:08:
                    48:14:74:90:d4:49:91:a6:e6:68:a7:79:24:4d:c3:
                    4d:53:cb:9f:c7:d5:e7:4b:90:ca:4b:50:ef:c2:d8:
                    b0:25:62:03:36:7a:cb:a3:81:73:51:35:55:c3:84:
                    92:07:0e:4b:8f:ac:b5:32:dd:24:2f:9c:27:ff:98:
                    d4:55:a6:c1:3d:44:d2:bb:92:77:03:ca:c6:d3:56:
                    23:af
                Exponent: 65537 (0x10001)
    Signature Algorithm: sha256WithRSAEncryption
         68:a5:98:b3:5a:9c:6d:f0:d6:16:ef:b0:59:cc:1e:c0:51:b0:
         b9:09:35:3a:a7:6c:63:25:a5:61:77:6d:fc:80:7e:b4:2c:a8:
         10:be:55:a7:3f:97:19:53:69:a4:9b:f4:9d:44:32:57:81:e9:
         d9:34:9e:4f:78:de:82:ce:66:a1:f3:07:26:48:de:fc:ec:35:
         5d:12:db:14:5e:13:d5:b7:b7:fd:1f:bf:6c:71:59:ba:12:b2:
         da:b0:90:ac:aa:8e:11:50:69:f7:66:0c:d0:22:64:5a:e4:74:
         9a:78:40:72:1f:2e:b5:e6:0b:23:df:75:96:8c:bb:80:f3:10:
         3e:ce:5c:bd:3f:46:c6:a9:25:7f:dc:06:7f:92:77:e9:06:42:
         ab:6a:f9:1d:6e:9e:0e:54:2b:46:e3:c3:6e:02:c1:35:3b:d1:
         3a:7c:fa:b2:cc:e2:a4:17:78:23:35:bb:e3:5a:bb:63:b2:bc:
         8d:7e:1f:84:90:13:58:93:1e:89:cd:03:85:03:67:a4:d1:72:
         5b:54:db:b0:02:9d:62:b2:01:81:45:61:34:86:d9:33:71:50:
         d1:75:c1:16:6a:a5:b5:61:74:a0:5a:2c:33:ea:d8:3d:fd:83:
         52:fe:cf:82:c7:44:69:4f:ec:9f:ce:a3:00:42:56:0d:65:47:
         e6:5c:5c:46
-----BEGIN CERTIFICATE-----
MIIDZzCCAk8CAQEwDQYJKoZIhvcNAQELBQAwgYAxCzAJBgNVBAYTAlVTMQswCQYD
VQQIDAJOQzENMAsGA1UEBwwEQ2FyeTEeMBwGA1UECgwVUmVhbCBUaW1lIElubm92
YXRpb25zMRYwFAYDVQQDDA1OQyBDZXJ0IFdvcmxkMR0wGwYJKoZIhvcNAQkBFg5z
ZWN1cmVAcnRpLmNvbTAeFw0xOTAzMDEwNDE5NDdaFw0yMDAyMjkwNDE5NDdaMHIx
CzAJBgNVBAYTAlVTMQswCQYDVQQIDAJOQzEeMBwGA1UECgwVUmVhbCBUaW1lIElu
bm92YXRpb25zMRMwEQYDVQQDDApwaXh5c2hhcGVzMSEwHwYJKoZIhvcNAQkBFhJw
aXh5c2hhcGVzQHJ0aS5jb20wggEiMA0GCSqGSIb3DQEBAQUAA4IBDwAwggEKAoIB
AQDJ1YlkCHu+jc0PgyISTKvamfwDgIWqtVKULsKPAYi5Ur+JxpCGhtEf/0WcYfr3
uMV+I5aUjd4x83V0jY65RfGr6SYjEdGT1h/OzQ70HTlER2cpRvSqeJfLpwYxpA30
DIUlY8QpyMYbGGuNJdyIRgmdAgmQnWYWAX+LPQ4/WVAFo6wiurzr6wMy89tNwUYI
zaaZ+9NEe+lB3+dcZnGCJGeVZIFpMkmQbLwHwnWgD7etNcAaCEgUdJDUSZGm5min
eSRNw01Ty5/H1edLkMpLUO/C2LAlYgM2esujgXNRNVXDhJIHDkuPrLUy3SQvnCf/
mNRVpsE9RNK7kncDysbTViOvAgMBAAEwDQYJKoZIhvcNAQELBQADggEBAGilmLNa
nG3w1hbvsFnMHsBRsLkJNTqnbGMlpWF3bfyAfrQsqBC+Vac/lxlTaaSb9J1EMleB
6dk0nk943oLOZqHzByZI3vzsNV0S2xReE9W3t/0fv2xxWboSstqwkKyqjhFQafdm
DNAiZFrkdJp4QHIfLrXmCyPfdZaMu4DzED7OXL0/RsapJX/cBn+Sd+kGQqtq+R1u
ng5UK0bjw24CwTU70Tp8+rLM4qQXeCM1u+Nau2OyvI1+H4SQE1iTHonNA4UDZ6TR
cltU27ACnWKyAYFFYTSG2TNxUNF1wRZqpbVhdKBaLDPq2D39g1L+z4LHRGlP7J/O
owBCVg1lR+ZcXEY=
-----END CERTIFICATE-----
